; Function Attrs: nounwind uwtable
define ptr @Cba_ManBlast(ptr noundef readonly captures(none) %0, i32 noundef %1, i32 noundef %2, i32 noundef %3) local_unnamed_addr #0 {
  %5 = getelementptr inbounds nuw i8, ptr %0, i64 1552
  %6 = load i32, ptr %5, align 8
  %7 = icmp sgt i32 %6, 0
  br i1 %7, label %Cba_ManNtkIsOk.exit.i.i, label %Cba_ManRoot.exit

Cba_ManNtkIsOk.exit.i.i:                          ; preds = %4
  %8 = getelementptr i8, ptr %0, i64 1564
  %.val.i.i.i = load i32, ptr %8, align 4
  %.not.i.i = icmp slt i32 %6, %.val.i.i.i
  br i1 %.not.i.i, label %9, label %Cba_ManRoot.exit

9:                                                ; preds = %Cba_ManNtkIsOk.exit.i.i
  %10 = getelementptr i8, ptr %0, i64 1568
  %.val.i.i = load ptr, ptr %10, align 8
  %11 = zext nneg i32 %6 to i64
  %12 = getelementptr inbounds nuw ptr, ptr %.val.i.i, i64 %11
  %13 = load ptr, ptr %12, align 8
  br label %Cba_ManRoot.exit

Cba_ManRoot.exit:                                 ; preds = %4, %Cba_ManNtkIsOk.exit.i.i, %9
  %14 = phi ptr [ %13, %9 ], [ null, %Cba_ManNtkIsOk.exit.i.i ], [ null, %4 ]
  %15 = tail call ptr @Cba_NtkBlast(ptr noundef %14, i32 noundef %2)
  ret ptr %15
}